; Function Attrs: null_pointer_is_valid sspstrong uwtable
define internal noundef i32 @dissect_h224_extended_client_data(ptr noundef %0, ptr noundef %1, i32 noundef %2) #0 {
  %4 = load i32, ptr @ett_h224, align 4
  %5 = tail call ptr @val_to_str_ext_const(i32 noundef 126, ptr noundef nonnull @h224_client_data_ext, ptr noundef nonnull @.str.131)
  %6 = tail call ptr @proto_tree_add_subtree(ptr noundef %1, ptr noundef %0, i32 noundef %2, i32 noundef -1, i32 noundef %4, ptr noundef null, ptr noundef %5)
  %7 = load i32, ptr @hf_h224_other_client_data, align 4
  %8 = tail call ptr @proto_tree_add_item(ptr noundef %6, i32 noundef %7, ptr noundef %0, i32 noundef %2, i32 noundef -1, i32 noundef 0)
  %9 = add i32 %2, 1
  ret i32 %9
}